target datalayout = "e-m:e-p270:32:32-p271:32:32-p272:64:64-i64:64-i128:128-f80:128-n8:16:32:64-S128"
target triple = "x86_64-pc-linux-gnu"

%struct.mbedtls_sha512_context = type { [2 x i64], [8 x i64], [128 x i8], i32 }

; Function Attrs: nounwind uwtable
define internal i64 @mbedtls_internal_sha512_process_many(ptr noundef %0, ptr noundef %1, i64 noundef %2) #0 {
  %4 = alloca i64, align 8
  %5 = alloca ptr, align 8
  %6 = alloca ptr, align 8
  %7 = alloca i64, align 8
  %8 = alloca i64, align 8
  %9 = alloca i32, align 4
  store ptr %0, ptr %5, align 8, !tbaa !3
  store ptr %1, ptr %6, align 8, !tbaa !16
  store i64 %2, ptr %7, align 8, !tbaa !12
  call void @llvm.lifetime.start.p0(i64 8, ptr %8) #10
  store i64 0, ptr %8, align 8, !tbaa !12
  br label %10

10:                                               ; preds = %19, %3
  %11 = load i64, ptr %7, align 8, !tbaa !12
  %12 = icmp uge i64 %11, 128
  br i1 %12, label %13, label %26

13:                                               ; preds = %10
  %14 = load ptr, ptr %5, align 8, !tbaa !3
  %15 = load ptr, ptr %6, align 8, !tbaa !16
  %16 = call i32 @mbedtls_internal_sha512_process(ptr noundef %14, ptr noundef %15)
  %17 = icmp ne i32 %16, 0
  br i1 %17, label %18, label %19

18:                                               ; preds = %13
  store i64 0, ptr %4, align 8
  store i32 1, ptr %9, align 4
  br label %28

19:                                               ; preds = %13
  %20 = load ptr, ptr %6, align 8, !tbaa !16
  %21 = getelementptr inbounds i8, ptr %20, i64 128
  store ptr %21, ptr %6, align 8, !tbaa !16
  %22 = load i64, ptr %7, align 8, !tbaa !12
  %23 = sub i64 %22, 128
  store i64 %23, ptr %7, align 8, !tbaa !12
  %24 = load i64, ptr %8, align 8, !tbaa !12
  %25 = add i64 %24, 128
  store i64 %25, ptr %8, align 8, !tbaa !12
  br label %10, !llvm.loop !29

26:                                               ; preds = %10
  %27 = load i64, ptr %8, align 8, !tbaa !12
  store i64 %27, ptr %4, align 8
  store i32 1, ptr %9, align 4
  br label %28

28:                                               ; preds = %26, %18
  call void @llvm.lifetime.end.p0(i64 8, ptr %8) #10
  %29 = load i64, ptr %4, align 8
  ret i64 %29
}

; Function Attrs: nounwind uwtable
define hidden void @mbedtls_sha512_free(ptr noundef %0) #0 {
  %2 = alloca ptr, align 8
  store ptr %0, ptr %2, align 8, !tbaa !3
  %3 = load ptr, ptr %2, align 8, !tbaa !3
  %4 = icmp eq ptr %3, null
  br i1 %4, label %5, label %6

5:                                                ; preds = %1
  br label %8

6:                                                ; preds = %1
  %7 = load ptr, ptr %2, align 8, !tbaa !3
  call void @mbedtls_platform_zeroize(ptr noundef %7, i64 noundef 216)
  br label %8

8:                                                ; preds = %6, %5
  ret void
}

; Function Attrs: nounwind uwtable
define hidden i32 @mbedtls_sha512_update(ptr noundef %0, ptr noundef %1, i64 noundef %2) #0 {
  %4 = alloca i32, align 4
  %5 = alloca ptr, align 8
  %6 = alloca ptr, align 8
  %7 = alloca i64, align 8
  %8 = alloca i32, align 4
  %9 = alloca i64, align 8
  %10 = alloca i32, align 4
  %11 = alloca i32, align 4
  %12 = alloca i64, align 8
  store ptr %0, ptr %5, align 8, !tbaa !3
  store ptr %1, ptr %6, align 8, !tbaa !16
  store i64 %2, ptr %7, align 8, !tbaa !12
  call void @llvm.lifetime.start.p0(i64 4, ptr %8) #10
  store i32 -110, ptr %8, align 4, !tbaa !10
  call void @llvm.lifetime.start.p0(i64 8, ptr %9) #10
  call void @llvm.lifetime.start.p0(i64 4, ptr %10) #10
  %13 = load i64, ptr %7, align 8, !tbaa !12
  %14 = icmp eq i64 %13, 0
  br i1 %14, label %15, label %16

15:                                               ; preds = %3
  store i32 0, ptr %4, align 4
  store i32 1, ptr %11, align 4
  br label %110

16:                                               ; preds = %3
  %17 = load ptr, ptr %5, align 8, !tbaa !3
  %18 = getelementptr inbounds nuw %struct.mbedtls_sha512_context, ptr %17, i32 0, i32 0
  %19 = getelementptr inbounds [2 x i64], ptr %18, i64 0, i64 0
  %20 = load i64, ptr %19, align 8, !tbaa !12
  %21 = and i64 %20, 127
  %22 = trunc i64 %21 to i32
  store i32 %22, ptr %10, align 4, !tbaa !10
  %23 = load i32, ptr %10, align 4, !tbaa !10
  %24 = sub i32 128, %23
  %25 = zext i32 %24 to i64
  store i64 %25, ptr %9, align 8, !tbaa !12
  %26 = load i64, ptr %7, align 8, !tbaa !12
  %27 = load ptr, ptr %5, align 8, !tbaa !3
  %28 = getelementptr inbounds nuw %struct.mbedtls_sha512_context, ptr %27, i32 0, i32 0
  %29 = getelementptr inbounds [2 x i64], ptr %28, i64 0, i64 0
  %30 = load i64, ptr %29, align 8, !tbaa !12
  %31 = add i64 %30, %26
  store i64 %31, ptr %29, align 8, !tbaa !12
  %32 = load ptr, ptr %5, align 8, !tbaa !3
  %33 = getelementptr inbounds nuw %struct.mbedtls_sha512_context, ptr %32, i32 0, i32 0
  %34 = getelementptr inbounds [2 x i64], ptr %33, i64 0, i64 0
  %35 = load i64, ptr %34, align 8, !tbaa !12
  %36 = load i64, ptr %7, align 8, !tbaa !12
  %37 = icmp ult i64 %35, %36
  br i1 %37, label %38, label %44

38:                                               ; preds = %16
  %39 = load ptr, ptr %5, align 8, !tbaa !3
  %40 = getelementptr inbounds nuw %struct.mbedtls_sha512_context, ptr %39, i32 0, i32 0
  %41 = getelementptr inbounds [2 x i64], ptr %40, i64 0, i64 1
  %42 = load i64, ptr %41, align 8, !tbaa !12
  %43 = add i64 %42, 1
  store i64 %43, ptr %41, align 8, !tbaa !12
  br label %44

44:                                               ; preds = %38, %16
  %45 = load i32, ptr %10, align 4, !tbaa !10
  %46 = icmp ne i32 %45, 0
  br i1 %46, label %47, label %75

47:                                               ; preds = %44
  %48 = load i64, ptr %7, align 8, !tbaa !12
  %49 = load i64, ptr %9, align 8, !tbaa !12
  %50 = icmp uge i64 %48, %49
  br i1 %50, label %51, label %75

51:                                               ; preds = %47
  %52 = load ptr, ptr %5, align 8, !tbaa !3
  %53 = getelementptr inbounds nuw %struct.mbedtls_sha512_context, ptr %52, i32 0, i32 2
  %54 = getelementptr inbounds [128 x i8], ptr %53, i64 0, i64 0
  %55 = load i32, ptr %10, align 4, !tbaa !10
  %56 = zext i32 %55 to i64
  %57 = getelementptr inbounds nuw i8, ptr %54, i64 %56
  %58 = load ptr, ptr %6, align 8, !tbaa !16
  %59 = load i64, ptr %9, align 8, !tbaa !12
  call void @llvm.memcpy.p0.p0.i64(ptr align 1 %57, ptr align 1 %58, i64 %59, i1 false)
  %60 = load ptr, ptr %5, align 8, !tbaa !3
  %61 = load ptr, ptr %5, align 8, !tbaa !3
  %62 = getelementptr inbounds nuw %struct.mbedtls_sha512_context, ptr %61, i32 0, i32 2
  %63 = getelementptr inbounds [128 x i8], ptr %62, i64 0, i64 0
  %64 = call i32 @mbedtls_internal_sha512_process(ptr noundef %60, ptr noundef %63)
  store i32 %64, ptr %8, align 4, !tbaa !10
  %65 = icmp ne i32 %64, 0
  br i1 %65, label %66, label %68

66:                                               ; preds = %51
  %67 = load i32, ptr %8, align 4, !tbaa !10
  store i32 %67, ptr %4, align 4
  store i32 1, ptr %11, align 4
  br label %110

68:                                               ; preds = %51
  %69 = load i64, ptr %9, align 8, !tbaa !12
  %70 = load ptr, ptr %6, align 8, !tbaa !16
  %71 = getelementptr inbounds nuw i8, ptr %70, i64 %69
  store ptr %71, ptr %6, align 8, !tbaa !16
  %72 = load i64, ptr %9, align 8, !tbaa !12
  %73 = load i64, ptr %7, align 8, !tbaa !12
  %74 = sub i64 %73, %72
  store i64 %74, ptr %7, align 8, !tbaa !12
  store i32 0, ptr %10, align 4, !tbaa !10
  br label %75

75:                                               ; preds = %68, %47, %44
  br label %76

76:                                               ; preds = %96, %75
  %77 = load i64, ptr %7, align 8, !tbaa !12
  %78 = icmp uge i64 %77, 128
  br i1 %78, label %79, label %97

79:                                               ; preds = %76
  call void @llvm.lifetime.start.p0(i64 8, ptr %12) #10
  %80 = load ptr, ptr %5, align 8, !tbaa !3
  %81 = load ptr, ptr %6, align 8, !tbaa !16
  %82 = load i64, ptr %7, align 8, !tbaa !12
  %83 = call i64 @mbedtls_internal_sha512_process_many(ptr noundef %80, ptr noundef %81, i64 noundef %82)
  store i64 %83, ptr %12, align 8, !tbaa !12
  %84 = load i64, ptr %12, align 8, !tbaa !12
  %85 = icmp ult i64 %84, 128
  br i1 %85, label %86, label %87

86:                                               ; preds = %79
  store i32 -1, ptr %4, align 4
  store i32 1, ptr %11, align 4
  br label %94

87:                                               ; preds = %79
  %88 = load i64, ptr %12, align 8, !tbaa !12
  %89 = load ptr, ptr %6, align 8, !tbaa !16
  %90 = getelementptr inbounds nuw i8, ptr %89, i64 %88
  store ptr %90, ptr %6, align 8, !tbaa !16
  %91 = load i64, ptr %12, align 8, !tbaa !12
  %92 = load i64, ptr %7, align 8, !tbaa !12
  %93 = sub i64 %92, %91
  store i64 %93, ptr %7, align 8, !tbaa !12
  store i32 0, ptr %11, align 4
  br label %94

94:                                               ; preds = %87, %86
  call void @llvm.lifetime.end.p0(i64 8, ptr %12) #10
  %95 = load i32, ptr %11, align 4
  switch i32 %95, label %110 [
    i32 0, label %96
  ]

96:                                               ; preds = %94
  br label %76, !llvm.loop !28

97:                                               ; preds = %76
  %98 = load i64, ptr %7, align 8, !tbaa !12
  %99 = icmp ugt i64 %98, 0
  br i1 %99, label %100, label %109

100:                                              ; preds = %97
  %101 = load ptr, ptr %5, align 8, !tbaa !3
  %102 = getelementptr inbounds nuw %struct.mbedtls_sha512_context, ptr %101, i32 0, i32 2
  %103 = getelementptr inbounds [128 x i8], ptr %102, i64 0, i64 0
  %104 = load i32, ptr %10, align 4, !tbaa !10
  %105 = zext i32 %104 to i64
  %106 = getelementptr inbounds nuw i8, ptr %103, i64 %105
  %107 = load ptr, ptr %6, align 8, !tbaa !16
  %108 = load i64, ptr %7, align 8, !tbaa !12
  call void @llvm.memcpy.p0.p0.i64(ptr align 1 %106, ptr align 1 %107, i64 %108, i1 false)
  br label %109

109:                                              ; preds = %100, %97
  store i32 0, ptr %4, align 4
  store i32 1, ptr %11, align 4
  br label %110

110:                                              ; preds = %109, %94, %66, %15
  call void @llvm.lifetime.end.p0(i64 4, ptr %10) #10
  call void @llvm.lifetime.end.p0(i64 8, ptr %9) #10
  call void @llvm.lifetime.end.p0(i64 4, ptr %8) #10
  %111 = load i32, ptr %4, align 4
  ret i32 %111
}

; Function Attrs: nounwind uwtable
define hidden i32 @mbedtls_sha512_starts(ptr noundef %0, i32 noundef %1) #0 {
  %3 = alloca i32, align 4
  %4 = alloca ptr, align 8
  %5 = alloca i32, align 4
  store ptr %0, ptr %4, align 8, !tbaa !3
  store i32 %1, ptr %5, align 4, !tbaa !10
  %6 = load i32, ptr %5, align 4, !tbaa !10
  %7 = icmp ne i32 %6, 0
  br i1 %7, label %8, label %12

8:                                                ; preds = %2
  %9 = load i32, ptr %5, align 4, !tbaa !10
  %10 = icmp ne i32 %9, 1
  br i1 %10, label %11, label %12

11:                                               ; preds = %8
  store i32 -117, ptr %3, align 4
  br label %75

12:                                               ; preds = %8, %2
  %13 = load ptr, ptr %4, align 8, !tbaa !3
  %14 = getelementptr inbounds nuw %struct.mbedtls_sha512_context, ptr %13, i32 0, i32 0
  %15 = getelementptr inbounds [2 x i64], ptr %14, i64 0, i64 0
  store i64 0, ptr %15, align 8, !tbaa !12
  %16 = load ptr, ptr %4, align 8, !tbaa !3
  %17 = getelementptr inbounds nuw %struct.mbedtls_sha512_context, ptr %16, i32 0, i32 0
  %18 = getelementptr inbounds [2 x i64], ptr %17, i64 0, i64 1
  store i64 0, ptr %18, align 8, !tbaa !12
  %19 = load i32, ptr %5, align 4, !tbaa !10
  %20 = icmp eq i32 %19, 0
  br i1 %20, label %21, label %46

21:                                               ; preds = %12
  %22 = load ptr, ptr %4, align 8, !tbaa !3
  %23 = getelementptr inbounds nuw %struct.mbedtls_sha512_context, ptr %22, i32 0, i32 1
  %24 = getelementptr inbounds [8 x i64], ptr %23, i64 0, i64 0
  store i64 7640891576956012808, ptr %24, align 8, !tbaa !12
  %25 = load ptr, ptr %4, align 8, !tbaa !3
  %26 = getelementptr inbounds nuw %struct.mbedtls_sha512_context, ptr %25, i32 0, i32 1
  %27 = getelementptr inbounds [8 x i64], ptr %26, i64 0, i64 1
  store i64 -4942790177534073029, ptr %27, align 8, !tbaa !12
  %28 = load ptr, ptr %4, align 8, !tbaa !3
  %29 = getelementptr inbounds nuw %struct.mbedtls_sha512_context, ptr %28, i32 0, i32 1
  %30 = getelementptr inbounds [8 x i64], ptr %29, i64 0, i64 2
  store i64 4354685564936845355, ptr %30, align 8, !tbaa !12
  %31 = load ptr, ptr %4, align 8, !tbaa !3
  %32 = getelementptr inbounds nuw %struct.mbedtls_sha512_context, ptr %31, i32 0, i32 1
  %33 = getelementptr inbounds [8 x i64], ptr %32, i64 0, i64 3
  store i64 -6534734903238641935, ptr %33, align 8, !tbaa !12
  %34 = load ptr, ptr %4, align 8, !tbaa !3
  %35 = getelementptr inbounds nuw %struct.mbedtls_sha512_context, ptr %34, i32 0, i32 1
  %36 = getelementptr inbounds [8 x i64], ptr %35, i64 0, i64 4
  store i64 5840696475078001361, ptr %36, align 8, !tbaa !12
  %37 = load ptr, ptr %4, align 8, !tbaa !3
  %38 = getelementptr inbounds nuw %struct.mbedtls_sha512_context, ptr %37, i32 0, i32 1
  %39 = getelementptr inbounds [8 x i64], ptr %38, i64 0, i64 5
  store i64 -7276294671716946913, ptr %39, align 8, !tbaa !12
  %40 = load ptr, ptr %4, align 8, !tbaa !3
  %41 = getelementptr inbounds nuw %struct.mbedtls_sha512_context, ptr %40, i32 0, i32 1
  %42 = getelementptr inbounds [8 x i64], ptr %41, i64 0, i64 6
  store i64 2270897969802886507, ptr %42, align 8, !tbaa !12
  %43 = load ptr, ptr %4, align 8, !tbaa !3
  %44 = getelementptr inbounds nuw %struct.mbedtls_sha512_context, ptr %43, i32 0, i32 1
  %45 = getelementptr inbounds [8 x i64], ptr %44, i64 0, i64 7
  store i64 6620516959819538809, ptr %45, align 8, !tbaa !12
  br label %71

46:                                               ; preds = %12
  %47 = load ptr, ptr %4, align 8, !tbaa !3
  %48 = getelementptr inbounds nuw %struct.mbedtls_sha512_context, ptr %47, i32 0, i32 1
  %49 = getelementptr inbounds [8 x i64], ptr %48, i64 0, i64 0
  store i64 -3766243637369397544, ptr %49, align 8, !tbaa !12
  %50 = load ptr, ptr %4, align 8, !tbaa !3
  %51 = getelementptr inbounds nuw %struct.mbedtls_sha512_context, ptr %50, i32 0, i32 1
  %52 = getelementptr inbounds [8 x i64], ptr %51, i64 0, i64 1
  store i64 7105036623409894663, ptr %52, align 8, !tbaa !12
  %53 = load ptr, ptr %4, align 8, !tbaa !3
  %54 = getelementptr inbounds nuw %struct.mbedtls_sha512_context, ptr %53, i32 0, i32 1
  %55 = getelementptr inbounds [8 x i64], ptr %54, i64 0, i64 2
  store i64 -7973340178411365097, ptr %55, align 8, !tbaa !12
  %56 = load ptr, ptr %4, align 8, !tbaa !3
  %57 = getelementptr inbounds nuw %struct.mbedtls_sha512_context, ptr %56, i32 0, i32 1
  %58 = getelementptr inbounds [8 x i64], ptr %57, i64 0, i64 3
  store i64 1526699215303891257, ptr %58, align 8, !tbaa !12
  %59 = load ptr, ptr %4, align 8, !tbaa !3
  %60 = getelementptr inbounds nuw %struct.mbedtls_sha512_context, ptr %59, i32 0, i32 1
  %61 = getelementptr inbounds [8 x i64], ptr %60, i64 0, i64 4
  store i64 7436329637833083697, ptr %61, align 8, !tbaa !12
  %62 = load ptr, ptr %4, align 8, !tbaa !3
  %63 = getelementptr inbounds nuw %struct.mbedtls_sha512_context, ptr %62, i32 0, i32 1
  %64 = getelementptr inbounds [8 x i64], ptr %63, i64 0, i64 5
  store i64 -8163818279084223215, ptr %64, align 8, !tbaa !12
  %65 = load ptr, ptr %4, align 8, !tbaa !3
  %66 = getelementptr inbounds nuw %struct.mbedtls_sha512_context, ptr %65, i32 0, i32 1
  %67 = getelementptr inbounds [8 x i64], ptr %66, i64 0, i64 6
  store i64 -2662702644619276377, ptr %67, align 8, !tbaa !12
  %68 = load ptr, ptr %4, align 8, !tbaa !3
  %69 = getelementptr inbounds nuw %struct.mbedtls_sha512_context, ptr %68, i32 0, i32 1
  %70 = getelementptr inbounds [8 x i64], ptr %69, i64 0, i64 7
  store i64 5167115440072839076, ptr %70, align 8, !tbaa !12
  br label %71

71:                                               ; preds = %46, %21
  %72 = load i32, ptr %5, align 4, !tbaa !10
  %73 = load ptr, ptr %4, align 8, !tbaa !3
  %74 = getelementptr inbounds nuw %struct.mbedtls_sha512_context, ptr %73, i32 0, i32 3
  store i32 %72, ptr %74, align 8, !tbaa !14
  store i32 0, ptr %3, align 4
  br label %75

75:                                               ; preds = %71, %11
  %76 = load i32, ptr %3, align 4
  ret i32 %76
}

; Function Attrs: nounwind uwtable
define hidden void @mbedtls_sha512_init(ptr noundef %0) #0 {
  %2 = alloca ptr, align 8
  store ptr %0, ptr %2, align 8, !tbaa !3
  %3 = load ptr, ptr %2, align 8, !tbaa !3
  call void @llvm.memset.p0.i64(ptr align 8 %3, i8 0, i64 216, i1 false)
  ret void
}

; Function Attrs: nounwind uwtable
define hidden i32 @mbedtls_sha512(ptr noundef %0, i64 noundef %1, ptr noundef %2, i32 noundef %3) #0 {
  %5 = alloca i32, align 4
  %6 = alloca ptr, align 8
  %7 = alloca i64, align 8
  %8 = alloca ptr, align 8
  %9 = alloca i32, align 4
  %10 = alloca i32, align 4
  %11 = alloca %struct.mbedtls_sha512_context, align 8
  %12 = alloca i32, align 4
  store ptr %0, ptr %6, align 8, !tbaa !16
  store i64 %1, ptr %7, align 8, !tbaa !12
  store ptr %2, ptr %8, align 8, !tbaa !16
  store i32 %3, ptr %9, align 4, !tbaa !10
  call void @llvm.lifetime.start.p0(i64 4, ptr %10) #10
  store i32 -110, ptr %10, align 4, !tbaa !10
  call void @llvm.lifetime.start.p0(i64 216, ptr %11) #10
  %13 = load i32, ptr %9, align 4, !tbaa !10
  %14 = icmp ne i32 %13, 0
  br i1 %14, label %15, label %19

15:                                               ; preds = %4
  %16 = load i32, ptr %9, align 4, !tbaa !10
  %17 = icmp ne i32 %16, 1
  br i1 %17, label %18, label %19

18:                                               ; preds = %15
  store i32 -117, ptr %5, align 4
  store i32 1, ptr %12, align 4
  br label %38

19:                                               ; preds = %15, %4
  call void @mbedtls_sha512_init(ptr noundef %11)
  %20 = load i32, ptr %9, align 4, !tbaa !10
  %21 = call i32 @mbedtls_sha512_starts(ptr noundef %11, i32 noundef %20)
  store i32 %21, ptr %10, align 4, !tbaa !10
  %22 = icmp ne i32 %21, 0
  br i1 %22, label %23, label %24

23:                                               ; preds = %19
  br label %36

24:                                               ; preds = %19
  %25 = load ptr, ptr %6, align 8, !tbaa !16
  %26 = load i64, ptr %7, align 8, !tbaa !12
  %27 = call i32 @mbedtls_sha512_update(ptr noundef %11, ptr noundef %25, i64 noundef %26)
  store i32 %27, ptr %10, align 4, !tbaa !10
  %28 = icmp ne i32 %27, 0
  br i1 %28, label %29, label %30

29:                                               ; preds = %24
  br label %36

30:                                               ; preds = %24
  %31 = load ptr, ptr %8, align 8, !tbaa !16
  %32 = call i32 @mbedtls_sha512_finish(ptr noundef %11, ptr noundef %31)
  store i32 %32, ptr %10, align 4, !tbaa !10
  %33 = icmp ne i32 %32, 0
  br i1 %33, label %34, label %35

34:                                               ; preds = %30
  br label %36

35:                                               ; preds = %30
  br label %36

36:                                               ; preds = %35, %34, %29, %23
  call void @mbedtls_sha512_free(ptr noundef %11)
  %37 = load i32, ptr %10, align 4, !tbaa !10
  store i32 %37, ptr %5, align 4
  store i32 1, ptr %12, align 4
  br label %38

38:                                               ; preds = %36, %18
  call void @llvm.lifetime.end.p0(i64 216, ptr %11) #10
  call void @llvm.lifetime.end.p0(i64 4, ptr %10) #10
  %39 = load i32, ptr %5, align 4
  ret i32 %39
}