; Function Attrs: nounwind uwtable
define hidden range(i32 -117, 1) i32 @mbedtls_sha512(ptr noundef readonly captures(none) %0, i64 noundef %1, ptr noundef writeonly captures(none) %2, i32 noundef %3) local_unnamed_addr #2 {
  %5 = alloca %struct.mbedtls_sha512_context, align 8
  call void @llvm.lifetime.start.p0(i64 216, ptr nonnull %5) #14
  %or.cond = icmp ugt i32 %3, 1
  br i1 %or.cond, label %34, label %6

6:                                                ; preds = %4
  %7 = icmp eq i32 %3, 0
  call void @llvm.memset.p0.i64(ptr noundef nonnull align 8 dereferenceable(216) %5, i8 0, i64 216, i1 false)
  br i1 %7, label %9, label %8

8:                                                ; preds = %6
  br label %9

9:                                                ; preds = %8, %6
  %.sink30.i = phi i64 [ -3766243637369397544, %8 ], [ 7640891576956012808, %6 ]
  %.sink29.i = phi i64 [ 7105036623409894663, %8 ], [ -4942790177534073029, %6 ]
  %.sink28.i = phi i64 [ -7973340178411365097, %8 ], [ 4354685564936845355, %6 ]
  %.sink27.i = phi i64 [ 1526699215303891257, %8 ], [ -6534734903238641935, %6 ]
  %.sink26.i = phi i64 [ 7436329637833083697, %8 ], [ 5840696475078001361, %6 ]
  %.sink25.i = phi i64 [ -8163818279084223215, %8 ], [ -7276294671716946913, %6 ]
  %.sink24.i = phi i64 [ -2662702644619276377, %8 ], [ 2270897969802886507, %6 ]
  %.sink.i = phi i64 [ 5167115440072839076, %8 ], [ 6620516959819538809, %6 ]
  %10 = getelementptr inbounds nuw i8, ptr %5, i64 16
  store i64 %.sink30.i, ptr %10, align 8, !tbaa !9
  %11 = getelementptr inbounds nuw i8, ptr %5, i64 24
  store i64 %.sink29.i, ptr %11, align 8, !tbaa !9
  %12 = getelementptr inbounds nuw i8, ptr %5, i64 32
  store i64 %.sink28.i, ptr %12, align 8, !tbaa !9
  %13 = getelementptr inbounds nuw i8, ptr %5, i64 40
  store i64 %.sink27.i, ptr %13, align 8, !tbaa !9
  %14 = getelementptr inbounds nuw i8, ptr %5, i64 48
  store i64 %.sink26.i, ptr %14, align 8, !tbaa !9
  %15 = getelementptr inbounds nuw i8, ptr %5, i64 56
  store i64 %.sink25.i, ptr %15, align 8, !tbaa !9
  %16 = getelementptr inbounds nuw i8, ptr %5, i64 64
  store i64 %.sink24.i, ptr %16, align 8, !tbaa !9
  %17 = getelementptr inbounds nuw i8, ptr %5, i64 72
  store i64 %.sink.i, ptr %17, align 8, !tbaa !9
  %18 = getelementptr inbounds nuw i8, ptr %5, i64 208
  store i32 %3, ptr %18, align 8, !tbaa !11
  %19 = icmp eq i64 %1, 0
  br i1 %19, label %32, label %20

20:                                               ; preds = %9
  store i64 %1, ptr %5, align 8, !tbaa !9
  %21 = icmp ugt i64 %1, 127
  br i1 %21, label %.preheader.i, label %._crit_edge.thread.i

.preheader.i:                                     ; preds = %20, %mbedtls_internal_sha512_process_many.exit.i
  %.14054.i = phi ptr [ %28, %mbedtls_internal_sha512_process_many.exit.i ], [ %0, %20 ]
  %.14353.i = phi i64 [ %29, %mbedtls_internal_sha512_process_many.exit.i ], [ %1, %20 ]
  br label %22

22:                                               ; preds = %22, %.preheader.i
  %.012.i.i = phi i64 [ %26, %22 ], [ 0, %.preheader.i ]
  %.0711.i.i = phi i64 [ %25, %22 ], [ %.14353.i, %.preheader.i ]
  %.0810.i.i = phi ptr [ %24, %22 ], [ %.14054.i, %.preheader.i ]
  %23 = call i32 @mbedtls_internal_sha512_process(ptr noundef nonnull %5, ptr noundef %.0810.i.i)
  %24 = getelementptr inbounds nuw i8, ptr %.0810.i.i, i64 128
  %25 = add i64 %.0711.i.i, -128
  %26 = add nuw i64 %.012.i.i, 128
  %27 = icmp ugt i64 %25, 127
  br i1 %27, label %22, label %mbedtls_internal_sha512_process_many.exit.i, !llvm.loop !21

mbedtls_internal_sha512_process_many.exit.i:      ; preds = %22
  %28 = getelementptr inbounds nuw i8, ptr %.14054.i, i64 %26
  %29 = sub i64 %.14353.i, %26
  %30 = icmp ugt i64 %29, 127
  br i1 %30, label %.preheader.i, label %._crit_edge.i, !llvm.loop !22

._crit_edge.i:                                    ; preds = %mbedtls_internal_sha512_process_many.exit.i
  %.not52.i = icmp eq i64 %29, 0
  br i1 %.not52.i, label %32, label %._crit_edge.thread.i

._crit_edge.thread.i:                             ; preds = %20, %._crit_edge.i
  %.140.lcssa.i20 = phi ptr [ %28, %._crit_edge.i ], [ %0, %20 ]
  %.143.lcssa.i19 = phi i64 [ %29, %._crit_edge.i ], [ %1, %20 ]
  %31 = getelementptr inbounds nuw i8, ptr %5, i64 80
  call void @llvm.memcpy.p0.p0.i64(ptr nonnull align 8 %31, ptr align 1 %.140.lcssa.i20, i64 %.143.lcssa.i19, i1 false)
  br label %32

32:                                               ; preds = %9, %._crit_edge.i, %._crit_edge.thread.i
  %33 = call i32 @mbedtls_sha512_finish(ptr noundef nonnull %5, ptr noundef %2)
  call void @mbedtls_platform_zeroize(ptr noundef nonnull %5, i64 noundef 216) #14
  br label %34

34:                                               ; preds = %4, %32
  %.08 = phi i32 [ 0, %32 ], [ -117, %4 ]
  call void @llvm.lifetime.end.p0(i64 216, ptr nonnull %5) #14
  ret i32 %.08
}